target datalayout = "e-m:e-p270:32:32-p271:32:32-p272:64:64-i64:64-i128:128-f80:128-n8:16:32:64-S128"
target triple = "x86_64-pc-linux-gnu"

%struct.RangeBound = type { i64, i8, i8, i8 }

; Function Attrs: nounwind uwtable
define internal i32 @adjacent_cmp_bounds(ptr noundef %0, ptr noundef %1, ptr noundef %2) #0 {
  %4 = alloca i32, align 4
  %5 = alloca ptr, align 8
  %6 = alloca ptr, align 8
  %7 = alloca ptr, align 8
  %8 = alloca i32, align 4
  %9 = alloca i32, align 4
  store ptr %0, ptr %5, align 8
  store ptr %1, ptr %6, align 8
  store ptr %2, ptr %7, align 8
  call void @llvm.lifetime.start.p0(i64 4, ptr %8) #5
  %10 = load ptr, ptr %5, align 8
  %11 = load ptr, ptr %6, align 8
  %12 = load ptr, ptr %7, align 8
  %13 = call i32 @range_cmp_bounds(ptr noundef %10, ptr noundef %11, ptr noundef %12)
  store i32 %13, ptr %8, align 4
  %14 = load ptr, ptr %7, align 8
  %15 = getelementptr inbounds nuw %struct.RangeBound, ptr %14, i32 0, i32 3
  %16 = load i8, ptr %15, align 2, !range !4, !noundef !5
  %17 = trunc i8 %16 to i1
  br i1 %17, label %18, label %36

18:                                               ; preds = %3
  %19 = load i32, ptr %8, align 4
  %20 = icmp slt i32 %19, 0
  br i1 %20, label %21, label %35

21:                                               ; preds = %18
  %22 = load ptr, ptr %5, align 8
  %23 = load ptr, ptr %6, align 8
  %24 = load ptr, ptr %7, align 8
  %25 = getelementptr inbounds nuw { i64, i64 }, ptr %23, i32 0, i32 0
  %26 = load i64, ptr %25, align 8
  %27 = getelementptr inbounds nuw { i64, i64 }, ptr %23, i32 0, i32 1
  %28 = load i64, ptr %27, align 8
  %29 = getelementptr inbounds nuw { i64, i64 }, ptr %24, i32 0, i32 0
  %30 = load i64, ptr %29, align 8
  %31 = getelementptr inbounds nuw { i64, i64 }, ptr %24, i32 0, i32 1
  %32 = load i64, ptr %31, align 8
  %33 = call zeroext i1 @bounds_adjacent(ptr noundef %22, i64 %26, i64 %28, i64 %30, i64 %32)
  br i1 %33, label %35, label %34

34:                                               ; preds = %21
  store i32 -1, ptr %4, align 4
  store i32 1, ptr %9, align 4
  br label %41

35:                                               ; preds = %21, %18
  store i32 1, ptr %4, align 4
  store i32 1, ptr %9, align 4
  br label %41

36:                                               ; preds = %3
  %37 = load i32, ptr %8, align 4
  %38 = icmp sle i32 %37, 0
  br i1 %38, label %39, label %40

39:                                               ; preds = %36
  store i32 -1, ptr %4, align 4
  store i32 1, ptr %9, align 4
  br label %41

40:                                               ; preds = %36
  store i32 1, ptr %4, align 4
  store i32 1, ptr %9, align 4
  br label %41

41:                                               ; preds = %40, %39, %35, %34
  call void @llvm.lifetime.end.p0(i64 4, ptr %8) #5
  %42 = load i32, ptr %4, align 4
  ret i32 %42
}

; Function Attrs: nounwind uwtable
define internal i32 @adjacent_inner_consistent(ptr noundef %0, ptr noundef %1, ptr noundef %2, ptr noundef %3) #0 {
  %5 = alloca i32, align 4
  %6 = alloca ptr, align 8
  %7 = alloca ptr, align 8
  %8 = alloca ptr, align 8
  %9 = alloca ptr, align 8
  %10 = alloca i32, align 4
  %11 = alloca i32, align 4
  %12 = alloca i32, align 4
  store ptr %0, ptr %6, align 8
  store ptr %1, ptr %7, align 8
  store ptr %2, ptr %8, align 8
  store ptr %3, ptr %9, align 8
  %13 = load ptr, ptr %9, align 8
  %14 = icmp ne ptr %13, null
  br i1 %14, label %15, label %40

15:                                               ; preds = %4
  call void @llvm.lifetime.start.p0(i64 4, ptr %10) #5
  call void @llvm.lifetime.start.p0(i64 4, ptr %11) #5
  %16 = load ptr, ptr %6, align 8
  %17 = load ptr, ptr %7, align 8
  %18 = load ptr, ptr %9, align 8
  %19 = call i32 @adjacent_cmp_bounds(ptr noundef %16, ptr noundef %17, ptr noundef %18)
  store i32 %19, ptr %10, align 4
  %20 = load ptr, ptr %6, align 8
  %21 = load ptr, ptr %8, align 8
  %22 = load ptr, ptr %9, align 8
  %23 = call i32 @range_cmp_bounds(ptr noundef %20, ptr noundef %21, ptr noundef %22)
  store i32 %23, ptr %11, align 4
  %24 = load i32, ptr %10, align 4
  %25 = icmp slt i32 %24, 0
  br i1 %25, label %26, label %29

26:                                               ; preds = %15
  %27 = load i32, ptr %11, align 4
  %28 = icmp sge i32 %27, 0
  br i1 %28, label %35, label %29

29:                                               ; preds = %26, %15
  %30 = load i32, ptr %10, align 4
  %31 = icmp sgt i32 %30, 0
  br i1 %31, label %32, label %36

32:                                               ; preds = %29
  %33 = load i32, ptr %11, align 4
  %34 = icmp slt i32 %33, 0
  br i1 %34, label %35, label %36

35:                                               ; preds = %32, %26
  store i32 0, ptr %5, align 4
  store i32 1, ptr %12, align 4
  br label %37

36:                                               ; preds = %32, %29
  store i32 0, ptr %12, align 4
  br label %37

37:                                               ; preds = %36, %35
  call void @llvm.lifetime.end.p0(i64 4, ptr %11) #5
  call void @llvm.lifetime.end.p0(i64 4, ptr %10) #5
  %38 = load i32, ptr %12, align 4
  switch i32 %38, label %47 [
    i32 0, label %39
    i32 1, label %45
  ]

39:                                               ; preds = %37
  br label %40

40:                                               ; preds = %39, %4
  %41 = load ptr, ptr %6, align 8
  %42 = load ptr, ptr %7, align 8
  %43 = load ptr, ptr %8, align 8
  %44 = call i32 @adjacent_cmp_bounds(ptr noundef %41, ptr noundef %42, ptr noundef %43)
  store i32 %44, ptr %5, align 4
  br label %45

45:                                               ; preds = %40, %37
  %46 = load i32, ptr %5, align 4
  ret i32 %46

47:                                               ; preds = %37
  unreachable
}