; Function Attrs: nounwind uwtable
define internal fastcc range(i32 -1, 2) i32 @adjacent_inner_consistent(ptr noundef %0, ptr noundef nonnull %1, ptr noundef nonnull %2, ptr noundef %3) unnamed_addr #2 {
  %.not = icmp eq ptr %3, null
  br i1 %.not, label %.thread, label %5

5:                                                ; preds = %4
  %6 = tail call i32 @range_cmp_bounds(ptr noundef %0, ptr noundef nonnull %1, ptr noundef nonnull %3) #6
  %7 = getelementptr inbounds nuw i8, ptr %3, i64 10
  %8 = load i8, ptr %7, align 2, !range !4, !noundef !5
  %9 = trunc nuw i8 %8 to i1
  br i1 %9, label %10, label %21

10:                                               ; preds = %5
  %11 = icmp slt i32 %6, 0
  br i1 %11, label %12, label %20

12:                                               ; preds = %10
  %13 = load i64, ptr %1, align 8
  %14 = getelementptr inbounds nuw i8, ptr %1, i64 8
  %15 = load i64, ptr %14, align 8
  %16 = load i64, ptr %3, align 8
  %17 = getelementptr inbounds nuw i8, ptr %3, i64 8
  %18 = load i64, ptr %17, align 8
  %19 = tail call zeroext i1 @bounds_adjacent(ptr noundef %0, i64 %13, i64 %15, i64 %16, i64 %18) #6
  br i1 %19, label %20, label %adjacent_cmp_bounds.exit

20:                                               ; preds = %12, %10
  br label %adjacent_cmp_bounds.exit

21:                                               ; preds = %5
  %22 = icmp slt i32 %6, 1
  %..i = select i1 %22, i32 -1, i32 1
  br label %adjacent_cmp_bounds.exit

adjacent_cmp_bounds.exit:                         ; preds = %12, %20, %21
  %.0.i = phi i32 [ 1, %20 ], [ -1, %12 ], [ %..i, %21 ]
  %23 = tail call i32 @range_cmp_bounds(ptr noundef %0, ptr noundef nonnull %2, ptr noundef nonnull %3) #6
  %24 = icmp slt i32 %.0.i, 0
  %25 = icmp sgt i32 %23, -1
  %or.cond = select i1 %24, i1 %25, i1 false
  %or.cond.not = xor i1 %or.cond, true
  %26 = icmp slt i32 %.0.i, 1
  %or.cond28 = select i1 %26, i1 true, i1 %25
  %or.cond29 = select i1 %or.cond.not, i1 %or.cond28, i1 false
  br i1 %or.cond29, label %.thread, label %adjacent_cmp_bounds.exit22

.thread:                                          ; preds = %adjacent_cmp_bounds.exit, %4
  %27 = tail call i32 @range_cmp_bounds(ptr noundef %0, ptr noundef nonnull %1, ptr noundef nonnull %2) #6
  %28 = getelementptr inbounds nuw i8, ptr %2, i64 10
  %29 = load i8, ptr %28, align 2, !range !4, !noundef !5
  %30 = trunc nuw i8 %29 to i1
  br i1 %30, label %31, label %42

31:                                               ; preds = %.thread
  %32 = icmp slt i32 %27, 0
  br i1 %32, label %33, label %41

33:                                               ; preds = %31
  %34 = load i64, ptr %1, align 8
  %35 = getelementptr inbounds nuw i8, ptr %1, i64 8
  %36 = load i64, ptr %35, align 8
  %37 = load i64, ptr %2, align 8
  %38 = getelementptr inbounds nuw i8, ptr %2, i64 8
  %39 = load i64, ptr %38, align 8
  %40 = tail call zeroext i1 @bounds_adjacent(ptr noundef %0, i64 %34, i64 %36, i64 %37, i64 %39) #6
  br i1 %40, label %41, label %adjacent_cmp_bounds.exit22

41:                                               ; preds = %33, %31
  br label %adjacent_cmp_bounds.exit22

42:                                               ; preds = %.thread
  %43 = icmp slt i32 %27, 1
  %..i20 = select i1 %43, i32 -1, i32 1
  br label %adjacent_cmp_bounds.exit22

adjacent_cmp_bounds.exit22:                       ; preds = %adjacent_cmp_bounds.exit, %42, %41, %33
  %.1 = phi i32 [ 1, %41 ], [ -1, %33 ], [ %..i20, %42 ], [ 0, %adjacent_cmp_bounds.exit ]
  ret i32 %.1
}